target datalayout = "e-m:e-p270:32:32-p271:32:32-p272:64:64-i64:64-i128:128-f80:128-n8:16:32:64-S128"
target triple = "x86_64-pc-linux-gnu"

%class.Symbol = type { i32, i16, [2 x i8] }

; Function Attrs: mustprogress nounwind uwtable
define linkonce_odr hidden noundef i32 @_ZNK6Symbol6lengthEv(ptr noundef nonnull align 4 dereferenceable(8) %0) #1 comdat align 2 {
  %2 = alloca ptr, align 8
  store ptr %0, ptr %2, align 8
  %3 = load ptr, ptr %2, align 8
  %4 = getelementptr inbounds %class.Symbol, ptr %3, i32 0, i32 1
  %5 = load i16, ptr %4, align 4
  %6 = zext i16 %5 to i32
  ret i32 %6
}

; Function Attrs: mustprogress nounwind uwtable
define linkonce_odr hidden noundef i32 @_ZNK6Symbol11utf8_lengthEv(ptr noundef nonnull align 4 dereferenceable(8) %0) #1 comdat align 2 {
  %2 = alloca ptr, align 8
  store ptr %0, ptr %2, align 8
  %3 = load ptr, ptr %2, align 8
  %4 = call noundef i32 @_ZNK6Symbol6lengthEv(ptr noundef nonnull align 4 dereferenceable(8) %3)
  ret i32 %4
}

; Function Attrs: mustprogress nounwind uwtable
define hidden noundef ptr @_ZN6Method24name_and_sig_as_C_stringEP5KlassP6SymbolS3_(ptr noundef %0, ptr noundef %1, ptr noundef %2) #1 align 2 {
  %4 = alloca ptr, align 8
  %5 = alloca ptr, align 8
  %6 = alloca ptr, align 8
  %7 = alloca ptr, align 8
  %8 = alloca i32, align 4
  %9 = alloca i32, align 4
  %10 = alloca i32, align 4
  %11 = alloca ptr, align 8
  store ptr %0, ptr %4, align 8
  store ptr %1, ptr %5, align 8
  store ptr %2, ptr %6, align 8
  %12 = load ptr, ptr %4, align 8
  %13 = call noundef ptr @_ZNK5Klass13external_nameEv(ptr noundef nonnull align 8 dereferenceable(196) %12)
  store ptr %13, ptr %7, align 8
  %14 = load ptr, ptr %7, align 8
  %15 = call i64 @strlen(ptr noundef %14) #11
  %16 = trunc i64 %15 to i32
  store i32 %16, ptr %8, align 4
  %17 = load ptr, ptr %5, align 8
  %18 = call noundef i32 @_ZNK6Symbol11utf8_lengthEv(ptr noundef nonnull align 4 dereferenceable(8) %17)
  store i32 %18, ptr %9, align 4
  %19 = load i32, ptr %8, align 4
  %20 = add nsw i32 %19, 1
  %21 = load i32, ptr %9, align 4
  %22 = add nsw i32 %20, %21
  %23 = load ptr, ptr %6, align 8
  %24 = call noundef i32 @_ZNK6Symbol11utf8_lengthEv(ptr noundef nonnull align 4 dereferenceable(8) %23)
  %25 = add nsw i32 %22, %24
  store i32 %25, ptr %10, align 4
  %26 = load i32, ptr %10, align 4
  %27 = add nsw i32 %26, 1
  %28 = sext i32 %27 to i64
  %29 = mul i64 %28, 1
  %30 = call noundef ptr @_Z23resource_allocate_bytesmN17AllocFailStrategy13AllocFailEnumE(i64 noundef %29, i32 noundef 0)
  store ptr %30, ptr %11, align 8
  %31 = load ptr, ptr %11, align 8
  %32 = load ptr, ptr %7, align 8
  %33 = call ptr @strcpy(ptr noundef %31, ptr noundef %32) #10
  %34 = load ptr, ptr %11, align 8
  %35 = load i32, ptr %8, align 4
  %36 = sext i32 %35 to i64
  %37 = getelementptr inbounds i8, ptr %34, i64 %36
  store i8 46, ptr %37, align 1
  %38 = load ptr, ptr %11, align 8
  %39 = load i32, ptr %8, align 4
  %40 = add nsw i32 %39, 1
  %41 = sext i32 %40 to i64
  %42 = getelementptr inbounds i8, ptr %38, i64 %41
  %43 = load ptr, ptr %5, align 8
  %44 = call noundef ptr @_ZNK6Symbol11as_C_stringEv(ptr noundef nonnull align 4 dereferenceable(8) %43)
  %45 = call ptr @strcpy(ptr noundef %42, ptr noundef %44) #10
  %46 = load ptr, ptr %11, align 8
  %47 = load i32, ptr %8, align 4
  %48 = add nsw i32 %47, 1
  %49 = load i32, ptr %9, align 4
  %50 = add nsw i32 %48, %49
  %51 = sext i32 %50 to i64
  %52 = getelementptr inbounds i8, ptr %46, i64 %51
  %53 = load ptr, ptr %6, align 8
  %54 = call noundef ptr @_ZNK6Symbol11as_C_stringEv(ptr noundef nonnull align 4 dereferenceable(8) %53)
  %55 = call ptr @strcpy(ptr noundef %52, ptr noundef %54) #10
  %56 = load ptr, ptr %11, align 8
  %57 = load i32, ptr %10, align 4
  %58 = sext i32 %57 to i64
  %59 = getelementptr inbounds i8, ptr %56, i64 %58
  store i8 0, ptr %59, align 1
  %60 = load ptr, ptr %11, align 8
  ret ptr %60
}