; Function Attrs: mustprogress nounwind uwtable
define hidden noundef ptr @_ZN6Method24name_and_sig_as_C_stringEP5KlassP6SymbolS3_(ptr noundef nonnull %0, ptr noundef %1, ptr noundef %2) local_unnamed_addr #0 align 2 {
  %4 = tail call noundef ptr @_ZNK5Klass13external_nameEv(ptr noundef nonnull align 8 dereferenceable(196) %0) #23
  %5 = tail call i64 @strlen(ptr noundef nonnull dereferenceable(1) %4) #24
  %6 = trunc i64 %5 to i32
  %7 = getelementptr inbounds i8, ptr %1, i64 4
  %8 = load i16, ptr %7, align 4
  %9 = zext i16 %8 to i32
  %10 = add nsw i32 %6, 1
  %11 = add nsw i32 %10, %9
  %12 = getelementptr inbounds i8, ptr %2, i64 4
  %13 = load i16, ptr %12, align 4
  %14 = zext i16 %13 to i32
  %15 = add nsw i32 %11, %14
  %16 = add nsw i32 %15, 1
  %17 = sext i32 %16 to i64
  %18 = tail call noundef ptr @_Z23resource_allocate_bytesmN17AllocFailStrategy13AllocFailEnumE(i64 noundef %17, i32 noundef 0) #23
  %19 = tail call ptr @strcpy(ptr noundef nonnull dereferenceable(1) %18, ptr noundef nonnull dereferenceable(1) %4) #23
  %sext = shl i64 %5, 32
  %20 = ashr exact i64 %sext, 32
  %21 = getelementptr inbounds i8, ptr %18, i64 %20
  store i8 46, ptr %21, align 1
  %22 = sext i32 %10 to i64
  %23 = getelementptr inbounds i8, ptr %18, i64 %22
  %24 = tail call noundef ptr @_ZNK6Symbol11as_C_stringEv(ptr noundef nonnull align 4 dereferenceable(8) %1) #23
  %25 = tail call ptr @strcpy(ptr noundef nonnull dereferenceable(1) %23, ptr noundef nonnull dereferenceable(1) %24) #23
  %26 = sext i32 %11 to i64
  %27 = getelementptr inbounds i8, ptr %18, i64 %26
  %28 = tail call noundef ptr @_ZNK6Symbol11as_C_stringEv(ptr noundef nonnull align 4 dereferenceable(8) %2) #23
  %29 = tail call ptr @strcpy(ptr noundef nonnull dereferenceable(1) %27, ptr noundef nonnull dereferenceable(1) %28) #23
  %30 = sext i32 %15 to i64
  %31 = getelementptr inbounds i8, ptr %18, i64 %30
  store i8 0, ptr %31, align 1
  ret ptr %18
}